
./babymips:     file format elf32-littlenanomips


Disassembly of section .init:

004003c8 <_init>:
  4003c8:	83e2 3024 	save	32,ra,gp
  4003cc:	83e2 3027 	restore.jrc	32,ra,gp

Disassembly of section .nanoMIPS.stubs:

004003d0 <.nanoMIPS.stubs>:
  4003d0:	0300 0000 	li	t8,0
  4003d4:	1818      	bc	4003ee <_init+0x26>
  4003d6:	0300 0001 	li	t8,1
  4003da:	1812      	bc	4003ee <_init+0x26>
  4003dc:	0300 0002 	li	t8,2
  4003e0:	180c      	bc	4003ee <_init+0x26>
  4003e2:	0300 0003 	li	t8,3
  4003e6:	1806      	bc	4003ee <_init+0x26>
  4003e8:	0300 0004 	li	t8,4
  4003ec:	1800      	bc	4003ee <_init+0x26>
  4003ee:	4320 0002 	lw	t9,0(gp)
  4003f2:	11ff      	move	t3,ra
  4003f4:	db30      	jalrc	t9

Disassembly of section .text:

004003f6 <.text>:
----- INIT -----
  4003f6:	13c0      	move	fp,zero
  4003f8:	0580 0014 	lapc	t0,400410 <_init+0x48>
  4003fc:	04a1 fb30 	lapc	a1,41ff30 <_fini+0x1f7a0>
  400400:	0781 fca8 	lapc	gp,4200ac <_fini+0x1f91c>
  400404:	109d      	move	a0,sp
  400406:	8020 8010 	li	at,-16
  40040a:	203d ea50 	and	sp,sp,at
  40040e:	d990      	jalrc	t0
  400410:	83e2 3014 	save	16,ra,gp
  400414:	0781 fc94 	lapc	gp,4200ac <_fini+0x1f91c>
  400418:	9341      	addiu	a2,a0,4
  40041a:	16c0      	lw	a1,0(a0)
  40041c:	4140 0036 	lw	a6,__libc_start_main
  400420:	0480 02c0 	lapc	a0,4006e4 <_init+0x31c>
  400424:	1120      	move	a5,zero
  400426:	610b fc88 	lwpc	a4,4200b4 <_fini+0x1f924>
  40042a:	0001 
  40042c:	60eb fc86 	lwpc	a3,4200b8 <_fini+0x1f928>
  400430:	0001 
  400432:	d950      	jalrc	a6
  400434:	04e1 fc70 	lapc	a3,4200a8 <_fini+0x1f918>
  400438:	0481 fc6c 	lapc	a0,4200a8 <_fini+0x1f918>
  40043c:	90eb      	addiu	a3,a3,3
  40043e:	b27f      	subu	a3,a3,a0
  400440:	c8fc 380a 	bltiuc	a3,7,40044e <_init+0x86>
  400444:	60eb fc72 	lwpc	a3,4200bc <_ITM_deregisterTMCloneTable>
  400448:	0001 
  40044a:	9b82      	beqzc	a3,40044e <_init+0x86>
  40044c:	d8e0      	jrc	a3
  40044e:	dbe0      	jrc	ra
  400450:	0481 fc54 	lapc	a0,4200a8 <_fini+0x1f918>
  400454:	d302      	li	a2,2
  400456:	04e1 fc4e 	lapc	a3,4200a8 <_fini+0x1f918>
  40045a:	b27f      	subu	a3,a3,a0
  40045c:	80e7 c082 	sra	a3,a3,2
  400460:	20c7 2918 	div	a1,a3,a2
  400464:	9a8a      	beqzc	a1,400470 <_init+0xa8>
  400466:	60eb fc54 	lwpc	a3,4200c0 <_ITM_registerTMCloneTable>
  40046a:	0001 
  40046c:	9b82      	beqzc	a3,400470 <_init+0xa8>
  40046e:	d8e0      	jrc	a3
  400470:	dbe0      	jrc	ra
  400472:	1e12      	save	16,ra,s0
  400474:	e0e2 0002 	aluipc	a3,data_seg_start (420000) <_fini+0x1f870>
  400478:	84c7 20e4 	lbu	a2,228(a3)
  40047c:	1207      	move	s0,a3
  40047e:	bb16      	bnezc	a2,400496 <_init+0xce>
  400480:	3bb3      	balc	400434 <_init+0x6c>
  400482:	60eb fc3c 	lwpc	a3,4200c4 <__deregister_frame_info>
  400486:	0001 
  400488:	9b86      	beqzc	a3,400490 <_init+0xc8>
  40048a:	0480 03a2 	lapc	a0,400830 <_fini+0xa0>
  40048e:	d8f0      	jalrc	a3
  400490:	d381      	li	a3,1
  400492:	84f0 10e4 	sb	a3,228(s0)
  400496:	1f12      	restore.jrc	16,ra,s0
  400498:	1e11      	save	16,ra
  40049a:	60eb fc28 	lwpc	a3,4200c8 <__register_frame_info>
  40049e:	0001 
  4004a0:	9b8a      	beqzc	a3,4004ac <_init+0xe4>
  4004a2:	04a1 fc42 	lapc	a1,4200e8 <__bss_start+0x4>
  4004a6:	0480 0386 	lapc	a0,400830 <_fini+0xa0>
  4004aa:	d8f0      	jalrc	a3
  4004ac:	0481 fa7c 	lapc	a0,41ff2c <_fini+0x1f79c>
  4004b0:	17c0      	lw	a3,0(a0)
  4004b2:	bb86      	bnezc	a3,4004ba <_init+0xf2>
  4004b4:	83e1 3012 	restore	16,ra

  4004b8:	1b97      	bc	400450 <_init+0x88>
  4004ba:	60eb fc0c 	lwpc	a3,4200cc <_Jv_RegisterClasses>
  4004be:	0001 
  4004c0:	9bf3      	beqzc	a3,4004b4 <_init+0xec>
  4004c2:	d8f0      	jalrc	a3
  4004c4:	1bef      	bc	4004b4 <_init+0xec>
----- INIT -----

----- FUNC START ----- [INTERNAL_CHECKER_FUNC]
# This function takes in 9 chars and checks that each one is only used once, and is valid.
# There are only 9 charcters that are valid: 'acdeqswxz'


  4004c6:	1c52      	save	80,fp,ra
  4004c8:	83dd 8fb0 	addiu	fp,sp,-4016
  4004cc:	b483      	sw	a0,12(sp)       
  4004ce:	b405      	sw	zero,20(sp)     
  4004d0:	b406      	sw	zero,24(sp)     
  4004d2:	b407      	sw	zero,28(sp)     
  4004d4:	b408      	sw	zero,32(sp)     
  4004d6:	b409      	sw	zero,36(sp)     
  4004d8:	b40a      	sw	zero,40(sp)
  4004da:	b40b      	sw	zero,44(sp)
  4004dc:	b40c      	sw	zero,48(sp)
  4004de:	b40d      	sw	zero,52(sp)
  4004e0:	b40f      	sw	zero,60(sp)

  4004e2:	186c      	bc	loop_header_0 (400550) <_init+0x188>

loop_body_0: 
  # read in a byte from flag input 
  4004e4:	34ef      	lw	a3,60(sp)       # loop counter variable 
  4004e6:	34c3      	lw	a2,12(sp)       # input_flag_location 
  4004e8:	b3ee      	addu	a3,a2,a3
  4004ea:	5ff8      	lbu	a3,0(a3)

  # get a lower case ascii, then use it as location in data: data_seg[input_ascii]  
  4004ec:	80e7 8061 	addiu	a3,a3,-97
  4004f0:	c8ec d052 	bgeiuc	a3,26,400546 <_init+0x17e>              #if not lowercase
  4004f4:	04c0 02a0 	lapc	a2, start_ro_data (400798) <_fini+0x8>
  4004f8:	537d      	lwxs	a2,a3(a2)
  4004fa:	4806 8000 	brsc	a2          # branch to 2*(contents of register) + PC

  4004fe:	34e5      	lw	a3,20(sp)
  400500:	90e9      	addiu	a3,a3,1
  400502:	b4e5      	sw	a3,20(sp)
  400504:	1844      	bc	40054a <_init+0x182>

  400506:	34e6      	lw	a3,24(sp)
  400508:	90e9      	addiu	a3,a3,1
  40050a:	b4e6      	sw	a3,24(sp)
  40050c:	183c      	bc	40054a <_init+0x182>
  
  40050e:	34e7      	lw	a3,28(sp)
  400510:	90e9      	addiu	a3,a3,1
  400512:	b4e7      	sw	a3,28(sp)
  400514:	1834      	bc	40054a <_init+0x182>
  
  400516:	34e8      	lw	a3,32(sp)
  400518:	90e9      	addiu	a3,a3,1
  40051a:	b4e8      	sw	a3,32(sp)
  40051c:	182c      	bc	40054a <_init+0x182>

  40051e:	34e9      	lw	a3,36(sp)
  400520:	90e9      	addiu	a3,a3,1
  400522:	b4e9      	sw	a3,36(sp)
  400524:	1824      	bc	40054a <_init+0x182>

  400526:	34ea      	lw	a3,40(sp)
  400528:	90e9      	addiu	a3,a3,1
  40052a:	b4ea      	sw	a3,40(sp)
  40052c:	181c      	bc	40054a <_init+0x182>

  40052e:	34eb      	lw	a3,44(sp)
  400530:	90e9      	addiu	a3,a3,1
  400532:	b4eb      	sw	a3,44(sp)
  400534:	1814      	bc	40054a <_init+0x182>

  400536:	34ec      	lw	a3,48(sp)
  400538:	90e9      	addiu	a3,a3,1
  40053a:	b4ec      	sw	a3,48(sp)
  40053c:	180c      	bc	40054a <_init+0x182>

  40053e:	34ed      	lw	a3,52(sp)
  400540:	90e9      	addiu	a3,a3,1
  400542:	b4ed      	sw	a3,52(sp)
  400544:	1804      	bc	40054a <_init+0x182>

default_switch: 
  400546:	10e0      	move	a3,zero
  400548:	1832      	bc	40057c <_init+0x1b4>

  # increment loop counter 
  40054a:	34ef      	lw	a3,60(sp)
  40054c:	90e9      	addiu	a3,a3,1
  40054e:	b4ef      	sw	a3,60(sp)

loop_header_0: 
  400550:	34ef      	lw	a3,60(sp)
  400552:	c8f8 4f8f 	bltic	a3,9,4004e4 <_init+0x11c>

  # jump to start of next loop 
  400556:	b40e      	sw	zero,56(sp)
  400558:	181a      	bc	400574 <_init+0x1ac>

loop_body_1: 
  # chack that each char was used only once 
  40055a:	34ee      	lw	a3,56(sp) # i 
  40055c:	33f2      	sll	a3,a3,2
  40055e:	7350      	addiu	a2,sp,64
  400560:	b3ee      	addu	a3,a2,a3
  400562:	a4e7 c0d4 	lw	a3,-44(a3)
  400566:	c8e0 0804 	beqic	a3,1,40056e <_init+0x1a6>

  # bad loop exit 
  40056a:	10e0      	move	a3,zero
  40056c:	180e      	bc	40057c <_init+0x1b4>
  
  # increment the loop counter
  40056e:	34ee      	lw	a3,56(sp)
  400570:	90e9      	addiu	a3,a3,1
  400572:	b4ee      	sw	a3,56(sp)

loop_header_1: 
  400574:	34ee      	lw	a3,56(sp)   # loop counter 
  400576:	c8f8 4fe1 	bltic	a3,9,40055a <_init+0x192>

ret: 
  40057a:	d381      	li	a3,1
  40057c:	1087      	move	a0,a3
  40057e:	1d52      	restore.jrc	80,fp,ra

----- FUNC END -----
 
----- FUNC START ----- [CHECK1]
  400580:	83c2 3030 	save	48,fp,ra
  400584:	83dd 8fd0 	addiu	fp,sp,-4048
  400588:	b403      	sw	zero,12(sp)
  40058a:	b404      	sw	zero,16(sp)
  40058c:	841d 1014 	sb	zero,20(sp)
  400590:	b407      	sw	zero,28(sp) # OUTER COUNTER
  400592:	184c      	bc	4005e0 <_init+0x218>
  
loop_body_0: 
  400594:	b406      	sw	zero,24(sp) # INNER COUNTER
  400596:	182e      	bc	4005c6 <_init+0x1fe>

loop_body_1:
  # get the byte and shift operations for segment find
  400598:	34c7      	lw	a2,28(sp)   # i 
  40059a:	10e6      	move	a3,a2
  40059c:	33f3      	sll	a3,a3,3
  40059e:	b37e      	addu	a3,a3,a2
  4005a0:	04c1 fab0 	lapc	a2,data_seg_middle (420054) <_fini+0x1f8c4>
  4005a4:	b37c      	addu	a2,a3,a2
  4005a6:	34e6      	lw	a3,24(sp)   # j
  4005a8:	b3ee      	addu	a3,a2,a3
  4005aa:	5ff8      	lbu	a3,0(a3)  # load from data segment 
  4005ac:	10c7      	move	a2,a3

  4005ae:	04e1 fa4e 	lapc	a3,data_seg_start (420000) <_fini+0x1f870>
  4005b2:	b3ee      	addu	a3,a2,a3
  4005b4:	5f78      	lbu	a2,0(a3)
  4005b6:	34e6      	lw	a3,24(sp) #j 
  4005b8:	72c8      	addiu	a1,sp,32
  4005ba:	b3de      	addu	a3,a1,a3
  4005bc:	a4c7 88ec 	sb	a2,-20(a3) # load from SP-12+a3 location 
  
  # update loop counter  
  4005c0:	34e6      	lw	a3,24(sp)
  4005c2:	90e9      	addiu	a3,a3,1
  4005c4:	b4e6      	sw	a3,24(sp)
loop_header_1:
  4005c6:	34e6      	lw	a3,24(sp) 
  4005c8:	c8f8 4fcd 	bltic	a3,9,400598 <_init+0x1d0>

  # executed once per loop_1 finishing
  4005cc:	73c3      	addiu	a3,sp,12
  4005ce:	1087      	move	a0,a3
  4005d0:	3af5      	balc	INTERNAL_CHECKER_FUNC (4004c6) #INTERNAL_CHECKER
  4005d2:	10e4      	move	a3,a0
  4005d4:	bb84      	bnezc	a3,4005da <_init+0x212>
  4005d6:	10e0      	move	a3,zero
  4005d8:	180e      	bc	4005e8 <_init+0x220>
  4005da:	34e7      	lw	a3,28(sp)
  4005dc:	90e9      	addiu	a3,a3,1
  4005de:	b4e7      	sw	a3,28(sp)

loop_header_0: 
  4005e0:	34e7      	lw	a3,28(sp)
  4005e2:	c8f8 4faf 	bltic	a3,9,loop_body_0 (400594) <_init+0x1cc>
  4005e6:	d381      	li	a3,1
  4005e8:	1087      	move	a0,a3
  4005ea:	83c2 303A3 	restore.jrc	48,fp,ra
----- FUNC END ------

----- FUNC START ----- [CHECK2] 
  4005ee:	83c2 3030 	save	48,fp,ra
  4005f2:	83dd 8fd0 	addiu	fp,sp,-4048
  4005f6:	b403      	sw	zero,12(sp)
  4005f8:	b404      	sw	zero,16(sp)
  4005fa:	841d 1014 	sb	zero,20(sp)
  4005fe:	b407      	sw	zero,28(sp)
  400600:	1842      	bc	400644 <_init+0x27c>

loop_body_0: 
  400602:	b406      	sw	zero,24(sp)
  400604:	1824      	bc	40062a <_init+0x262>

loop_body_1:
  400606:	34c6      	lw	a2,24(sp)   # j
  400608:	10e6      	move	a3,a2
  40060a:	33f3      	sll	a3,a3,3
  40060c:	b37c      	addu	a2,a3,a2
  40060e:	34e7      	lw	a3,28(sp)   # i
  400610:	b3ec      	addu	a2,a2,a3
  400612:	04e1 f9ea 	lapc	a3,data_seg_start (420000) <_fini+0x1f870>
  400616:	b3ee      	addu	a3,a2,a3
  400618:	5f78      	lbu	a2,0(a3)
  40061a:	34e6      	lw	a3,24(sp)   # j
  40061c:	72c8      	addiu	a1,sp,32
  40061e:	b3de      	addu	a3,a1,a3
  400620:	a4c7 88ec 	sb	a2,-20(a3)

  # increment j 
  400624:	34e6      	lw	a3,24(sp)   # j 
  400626:	90e9      	addiu	a3,a3,1
  400628:	b4e6      	sw	a3,24(sp)  

loop_header_1:
  40062a:	34e6      	lw	a3,24(sp)
  40062c:	c8f8 4fd7 	bltic	a3,9,400606 <_init+0x23e>
  
  # check if all the chars are unique 
  400630:	73c3      	addiu	a3,sp,12
  400632:	1087      	move	a0,a3
  400634:	3a91      	balc	INTERNAL_CHECKER_FUNC (4004c6)
  400636:	10e4      	move	a3,a0
  400638:	bb84      	bnezc	a3,40063e <_init+0x276>

  40063a:	10e0      	move	a3,zero
  40063c:	180e      	bc	40064c <_init+0x284>

  # increment loop counter 
  40063e:	34e7      	lw	a3,28(sp)
  400640:	90e9      	addiu	a3,a3,1
  400642:	b4e7      	sw	a3,28(sp)

loop_header_0: 
  400644:	34e7      	lw	a3,28(sp)
  400646:	c8f8 4fb9 	bltic	a3,9,400602 <_init+0x23a>

  40064a:	d381      	li	a3,1
  40064c:	1087      	move	a0,a3
  40064e:	83c2 3033 	restore.jrc	48,fp,ra
----- FUNC END -----

----- FUNC START ----- [CHECK3] 
  400652:	83c2 3030 	save	48,fp,ra
  400656:	83dd 8fd0 	addiu	fp,sp,-4048
  40065a:	b403      	sw	zero,12(sp)
  40065c:	b404      	sw	zero,16(sp)
  40065e:	841d 1014 	sb	zero,20(sp)
  400662:	b407      	sw	zero,28(sp)
  400664:	1842      	bc	4006a8 <_init+0x2e0>

loop_body_0:
  400666:	b406      	sw	zero,24(sp)
  400668:	1824      	bc	40068e <_init+0x2c6>

loop_body_1: 
  40066a:	34c7      	lw	a2,28(sp) # i 
  40066c:	10e6      	move	a3,a2
  40066e:	33f3      	sll	a3,a3,3
  400670:	b37c      	addu	a2,a3,a2
  400672:	34e6      	lw	a3,24(sp) # j 
  400674:	b3ec      	addu	a2,a2,a3
  400676:	04e1 f986 	lapc	a3,data_seg_start (420000) <_fini+0x1f870>
  40067a:	b3ee      	addu	a3,a2,a3
  40067c:	5f78      	lbu	a2,0(a3)
  40067e:	34e6      	lw	a3,24(sp) # j 
  400680:	72c8      	addiu	a1,sp,32 
  400682:	b3de      	addu	a3,a1,a3
  400684:	a4c7 88ec 	sb	a2,-20(a3)

  # increment j 
  400688:	34e6      	lw	a3,24(sp)
  40068a:	90e9      	addiu	a3,a3,1
  40068c:	b4e6      	sw	a3,24(sp)

loop_header_1: 
  40068e:	34e6      	lw	a3,24(sp)
  400690:	c8f8 4fd7 	bltic	a3,9,40066a <_init+0x2a2>

  # check if chars valid 
  400694:	73c3      	addiu	a3,sp,12
  400696:	1087      	move	a0,a3
  400698:	3a2d      	balc	INTERNAL_CHECKER_FUNC (4004c6)
  40069a:	10e4      	move	a3,a0
  40069c:	bb84      	bnezc	a3,4006a2 <_init+0x2da>
  40069e:	10e0      	move	a3,zero
  4006a0:	180e      	bc	4006b0 <_init+0x2e8>
  
  # increment i 
  4006a2:	34e7      	lw	a3,28(sp)
  4006a4:	90e9      	addiu	a3,a3,1
  4006a6:	b4e7      	sw	a3,28(sp)

loop_header_0: 
  4006a8:	34e7      	lw	a3,28(sp)
  4006aa:	c8f8 4fb9 	bltic	a3,9,400666 <_init+0x29e>

  # good exit 
  4006ae:	d381      	li	a3,1
  4006b0:	1087      	move	a0,a3
  4006b2:	83c2 3033 	restore.jrc	48,fp,ra
----- FUNC END -----

----- FUNC START ----- [MAIN CHECKER] 
loc_1: 
  4006b6:	83c2 3010 	save	16,fp,ra
  4006ba:	83dd 8ff0 	addiu	fp,sp,-4080
  4006be:	3ac1      	balc	400580 <_init+0x1b8> # CHECK 1

  4006c0:	10e4      	move	a3,a0
  4006c2:	bb84      	bnezc	a3,4006c8 <_init+0x300> 
  4006c4:	10e0      	move	a3,zero
  4006c6:	1816      	bc	loc_2 (4006de) <_init+0x316>
  
  4006c8:	3b25      	balc	4005ee <_init+0x226> # CHECK 2 
  4006ca:	10e4      	move	a3,a0
  4006cc:	bb84      	bnezc	a3,4006d2 <_init+0x30a>
  4006ce:	10e0      	move	a3,zero
  4006d0:	180c      	bc	4006de <_init+0x316>

  4006d2:	3b7f      	balc	400652 <_init+0x28a> # CHECK 3 
  4006d4:	10e4      	move	a3,a0
  4006d6:	bb84      	bnezc	a3,4006dc <_init+0x314>
  4006d8:	10e0      	move	a3,zero
  4006da:	1802      	bc	4006de <_init+0x316>
  4006dc:	d381      	li	a3,1 # GOOD OUTPUT

loc_2:
  4006de:	1087      	move	a0,a3
  4006e0:	83c2 3013 	restore.jrc	16,fp,ra
----- FUNC END ----- 


----- FUNC START -----
  4006e4:	83c3 3084 	save	128,fp,ra,gp
  4006e8:	83dd 8f80 	addiu	fp,sp,-3968
  4006ec:	0781 f9bc 	lapc	gp,4200ac <_fini+0x1f91c>
  4006f0:	73c3      	addiu	a3,sp,12
  4006f2:	d35a      	li	a2,90

  4006f4:	bc67      	movep	a0,a1,a3,zero
  4006f6:	40e0 0032 	lw	a3,memset
  4006fa:	d8f0      	jalrc	a3

  4006fc:	73c3      	addiu	a3,sp,12
  4006fe:	d33e      	li	a2,62
  400700:	bce3      	movep	a0,a1,zero,a3

  # =================== READ USER INPUT HERE ========================= #
  # flag = sp[12:73]

  400702:	40e0 0026 	lw	a3,read
  400706:	d8f0      	jalrc	a3

  # check to see if the last byte is '}' 
  400708:	84fd 2049 	lbu	a3,73(sp)
  40070c:	c8f3 e86c 	bneic	a3,125, print_bad_str (40077c) <_init+0x3b4>
    
  # do a string compare, jump to bad string if fail 
  400710:	73c3      	addiu	a3,sp,12                    # go to start of string read  
  400712:	d305      	li	a2,5
  400714:	04a0 00e8 	lapc	a1,flag_start_string (400800) <_fini+0x70> 
  400718:	1087      	move	a0,a3
  40071a:	40e0 002a 	lw	a3,strncmp
  40071e:	d8f0      	jalrc	a3                          # compares 5 bytes at a time

  # goto print_bad if incorrect after strncmp 
  400720:	10e4      	move	a3,a0
  400722:	bbd8      	bnezc	a3, print_bad_str_2 (40077c) <_init+0x3b4>
 
  400724:	b41b      	sw	zero,data_pos (SP-108)
  400726:	d385      	li	a3,5
  400728:	b4fa      	sw	a3,104(sp)
  40072a:	182c      	bc	loop_header (400758) <_init+0x390>

     
  # ==================== STORE INPUT INTO DATA SEGMENT ================ #
  # The entire code below simply loops through the flag data inputted
  # and places it into the .data segment. It will place it in the data seg
  # if the position at init of the binary is 0. I.E., every 0 position in the
  # data now will be filled with our flag data. 
  
data_pos_inc: 
  40072c:	34fb      	lw	a3,data_pos (SP-108)
  40072e:	90e9      	addiu	a3,a3,1
  400730:	b4fb      	sw	a3,data_pos (SP-108)

loop_body: 
  # find data location with zero byte
  400732:	04c1 f8ca 	lapc	a2,data_seg_start (420000) <_fini+0x1f870>
  400736:	34fb      	lw	a3,data_pos (SP-108)
  400738:	b3ee      	addu	a3,a2,a3
  40073a:	5ff8      	lbu	a3,0(a3)                                       # load byte unsigned
  40073c:	bbef      	bnezc	a3,data_pos_inc (40072c) <_init+0x364>     # branch if != 0
  
  # load an input flag char into a2 
  40073e:	34fa      	lw	a3,104(sp)          # load current char
  400740:	735c      	addiu	a2,sp,112       
  400742:	b3ee      	addu	a3,a2,a3        
  400744:	a4c7 909c 	lbu	a2,-100(a3)         # load byte from (sp+12 + a3) "input_flag_buffer_loc"
  
  # store input byte at data_pos location
  400748:	04a1 f8b4 	lapc	a1,data_seg_start (420000) <_fini+0x1f870>
  40074c:	34fb      	lw	a3,data_pos (SP-108)
  40074e:	b3de      	addu	a3,a1,a3
  400750:	5f74      	sb	a2,0(a3)
  
  # increment current input_location 
  400752:	34fa      	lw	a3,104(sp)  
  400754:	90e9      	addiu	a3,a3,1
  400756:	b4fa      	sw	a3,104(sp)

loop_header: 
  400758:	34fa      	lw	a3,104(sp)
  40075a:	c8f9 efd5 	bltic	a3,61,400732 <_init+0x36a>

after_input_store: 
  40075e:	3b57      	balc	4006b6 <_init+0x2ee>
  400760:	10e4      	move	a3,a0
  400762:	9b8c      	beqzc	a3,print_bad_str (400810) <_init+0x3a8>

  # ============= PRINT RIGHT STRING ================= # 

  400764:	0480 00a0 	lapc	a0,correct_string (400808) <_fini+0x78>
  400768:	40e0 002e 	lw	a3,puts
  40076c:	d8f0      	jalrc	a3
  40076e:	1816      	bc	400786 <_init+0x3be>
    
  # ============== PRINT WRONG STRING ================ #

print_bad_str: 
  400770:	0480 009c 	lapc	a0,wrong_string (400810) <_fini+0x80>
  400774:	40e0 002e 	lw	a3,puts
  400778:	d8f0      	jalrc	a3
  40077a:	180a      	bc	400786 <_init+0x3be>

print_bad_str_2: 
  40077c:	0480 0090 	lapc	a0,wrong_string (400810) <_fini+0x80>
  400780:	40e0 002e 	lw	a3,puts
  400784:	d8f0      	jalrc	a3
  400786:	10e0      	move	a3,zero
  400788:	1087      	move	a0,a3
  40078a:	83c3 3087 	restore.jrc	128,fp,ra,ga

----- FUNC END -----

Disassembly of section .fini:

00400790 <_fini>:
  400790:	83e2 3024 	save	32,ra,gp
  400794:	83e2 3027 	restore.jrc	32,ra,gp

Disassembly of section .nanoMIPS.abiflags:

00400818 <.nanoMIPS.abiflags>:
  400818:	0000 0620 	sigrie	0x620
  40081c:	0001 0300 	sigrie	0x10300
  400820:	0000 0000 	sigrie	0x0
  400824:	0001 0004 	sigrie	0x10004
	...
